
./a.out:	file format mach-o arm64

Disassembly of section __TEXT,__text:

00000001000004f8 <_initialise>:
1000004f8: d10043ff    	sub	sp, sp, #0x10
1000004fc: b9000fe0    	str	w0, [sp, #0xc]
100000500: 900bec08    	adrp	x8, 0x117d80000 <_adata+0x17d78000>
100000504: 91101108    	add	x8, x8, #0x404
100000508: b900011f    	str	wzr, [x8]
10000050c: 14000001    	b	0x100000510 <_initialise+0x18>
100000510: 900bec08    	adrp	x8, 0x117d80000 <_adata+0x17d78000>
100000514: 91101108    	add	x8, x8, #0x404
100000518: b9400108    	ldr	w8, [x8]
10000051c: b9400fe9    	ldr	w9, [sp, #0xc]
100000520: 6b090108    	subs	w8, w8, w9
100000524: 54000500    	b.eq	0x1000005c4 <_initialise+0xcc>
100000528: 14000001    	b	0x10000052c <_initialise+0x34>
10000052c: 900bec08    	adrp	x8, 0x117d80000 <_adata+0x17d78000>
100000530: 91100108    	add	x8, x8, #0x400
100000534: b900011f    	str	wzr, [x8]
100000538: 14000001    	b	0x10000053c <_initialise+0x44>
10000053c: 900bec08    	adrp	x8, 0x117d80000 <_adata+0x17d78000>
100000540: 91100108    	add	x8, x8, #0x400
100000544: b9400108    	ldr	w8, [x8]
100000548: b9400fe9    	ldr	w9, [sp, #0xc]
10000054c: 6b090108    	subs	w8, w8, w9
100000550: 540002c0    	b.eq	0x1000005a8 <_initialise+0xb0>
100000554: 14000001    	b	0x100000558 <_initialise+0x60>
100000558: 900bec09    	adrp	x9, 0x117d80000 <_adata+0x17d78000>
10000055c: 91100129    	add	x9, x9, #0x400
100000560: b9400128    	ldr	w8, [x9]
100000564: b9400129    	ldr	w9, [x9]
100000568: 900bec0a    	adrp	x10, 0x117d80000 <_adata+0x17d78000>
10000056c: 9110114a    	add	x10, x10, #0x404
100000570: b940014a    	ldr	w10, [x10]
100000574: b9400feb    	ldr	w11, [sp, #0xc]
100000578: 1b0b7d4a    	mul	w10, w10, w11
10000057c: 0b0a012a    	add	w10, w9, w10
100000580: 90000049    	adrp	x9, 0x100008000 <_adata>
100000584: 91000129    	add	x9, x9, #0x0
100000588: b82ad928    	str	w8, [x9, w10, sxtw #2]
10000058c: 14000001    	b	0x100000590 <_initialise+0x98>
100000590: 900bec09    	adrp	x9, 0x117d80000 <_adata+0x17d78000>
100000594: 91100129    	add	x9, x9, #0x400
100000598: b9400128    	ldr	w8, [x9]
10000059c: 11000508    	add	w8, w8, #0x1
1000005a0: b9000128    	str	w8, [x9]
1000005a4: 17ffffe6    	b	0x10000053c <_initialise+0x44>
1000005a8: 14000001    	b	0x1000005ac <_initialise+0xb4>
1000005ac: 900bec09    	adrp	x9, 0x117d80000 <_adata+0x17d78000>
1000005b0: 91101129    	add	x9, x9, #0x404
1000005b4: b9400128    	ldr	w8, [x9]
1000005b8: 11000508    	add	w8, w8, #0x1
1000005bc: b9000128    	str	w8, [x9]
1000005c0: 17ffffd4    	b	0x100000510 <_initialise+0x18>
1000005c4: 52800000    	mov	w0, #0x0                ; =0
1000005c8: 910043ff    	add	sp, sp, #0x10
1000005cc: d65f03c0    	ret

00000001000005d0 <_cacheload>:
1000005d0: d10043ff    	sub	sp, sp, #0x10
1000005d4: b9000fff    	str	wzr, [sp, #0xc]
1000005d8: 900bec09    	adrp	x9, 0x117d80000 <_adata+0x17d78000>
1000005dc: 91100129    	add	x9, x9, #0x400
1000005e0: 529c2008    	mov	w8, #0xe100             ; =57600
1000005e4: 72a0bea8    	movk	w8, #0x5f5, lsl #16
1000005e8: b9000128    	str	w8, [x9]
1000005ec: 14000001    	b	0x1000005f0 <_cacheload+0x20>
1000005f0: 900bec08    	adrp	x8, 0x117d80000 <_adata+0x17d78000>
1000005f4: 91100108    	add	x8, x8, #0x400
1000005f8: b9400108    	ldr	w8, [x8]
1000005fc: 34000248    	cbz	w8, 0x100000644 <_cacheload+0x74>
100000600: 14000001    	b	0x100000604 <_cacheload+0x34>
100000604: 900bec08    	adrp	x8, 0x117d80000 <_adata+0x17d78000>
100000608: 91100108    	add	x8, x8, #0x400
10000060c: b9800109    	ldrsw	x9, [x8]
100000610: 90000048    	adrp	x8, 0x100008000 <_adata>
100000614: 91000108    	add	x8, x8, #0x0
100000618: b8697909    	ldr	w9, [x8, x9, lsl #2]
10000061c: b9400fe8    	ldr	w8, [sp, #0xc]
100000620: 0b090108    	add	w8, w8, w9
100000624: b9000fe8    	str	w8, [sp, #0xc]
100000628: 14000001    	b	0x10000062c <_cacheload+0x5c>
10000062c: 900bec09    	adrp	x9, 0x117d80000 <_adata+0x17d78000>
100000630: 91100129    	add	x9, x9, #0x400
100000634: b9400128    	ldr	w8, [x9]
100000638: 71000508    	subs	w8, w8, #0x1
10000063c: b9000128    	str	w8, [x9]
100000640: 17ffffec    	b	0x1000005f0 <_cacheload+0x20>
100000644: b9400fe0    	ldr	w0, [sp, #0xc]
100000648: 910043ff    	add	sp, sp, #0x10
10000064c: d65f03c0    	ret

0000000100000650 <_dm_sumarray0>:
100000650: d10043ff    	sub	sp, sp, #0x10
100000654: b9000fe0    	str	w0, [sp, #0xc]
100000658: b9000bff    	str	wzr, [sp, #0x8]
10000065c: 900bec08    	adrp	x8, 0x117d80000 <_adata+0x17d78000>
100000660: 91100108    	add	x8, x8, #0x400
100000664: b900011f    	str	wzr, [x8]
100000668: 14000001    	b	0x10000066c <_dm_sumarray0+0x1c>
10000066c: 900bec08    	adrp	x8, 0x117d80000 <_adata+0x17d78000>
100000670: 91100108    	add	x8, x8, #0x400
100000674: b9400108    	ldr	w8, [x8]
100000678: b9400fe9    	ldr	w9, [sp, #0xc]
10000067c: 6b090108    	subs	w8, w8, w9
100000680: 54000540    	b.eq	0x100000728 <_dm_sumarray0+0xd8>
100000684: 14000001    	b	0x100000688 <_dm_sumarray0+0x38>
100000688: 900bec08    	adrp	x8, 0x117d80000 <_adata+0x17d78000>
10000068c: 91101108    	add	x8, x8, #0x404
100000690: b900011f    	str	wzr, [x8]
100000694: 14000001    	b	0x100000698 <_dm_sumarray0+0x48>
100000698: 900bec08    	adrp	x8, 0x117d80000 <_adata+0x17d78000>
10000069c: 91101108    	add	x8, x8, #0x404
1000006a0: b9400108    	ldr	w8, [x8]
1000006a4: b9400fe9    	ldr	w9, [sp, #0xc]
1000006a8: 6b090108    	subs	w8, w8, w9
1000006ac: 54000300    	b.eq	0x10000070c <_dm_sumarray0+0xbc>
1000006b0: 14000001    	b	0x1000006b4 <_dm_sumarray0+0x64>
1000006b4: 900bec08    	adrp	x8, 0x117d80000 <_adata+0x17d78000>
1000006b8: 91101108    	add	x8, x8, #0x404
1000006bc: b9400108    	ldr	w8, [x8]
1000006c0: 900bec09    	adrp	x9, 0x117d80000 <_adata+0x17d78000>
1000006c4: 91100129    	add	x9, x9, #0x400
1000006c8: b9400129    	ldr	w9, [x9]
1000006cc: b9400fea    	ldr	w10, [sp, #0xc]
1000006d0: 1b0a7d29    	mul	w9, w9, w10
1000006d4: 0b090109    	add	w9, w8, w9
1000006d8: 90000048    	adrp	x8, 0x100008000 <_adata>
1000006dc: 91000108    	add	x8, x8, #0x0
1000006e0: b869d909    	ldr	w9, [x8, w9, sxtw #2]
1000006e4: b9400be8    	ldr	w8, [sp, #0x8]
1000006e8: 0b090108    	add	w8, w8, w9
1000006ec: b9000be8    	str	w8, [sp, #0x8]
1000006f0: 14000001    	b	0x1000006f4 <_dm_sumarray0+0xa4>
1000006f4: 900bec09    	adrp	x9, 0x117d80000 <_adata+0x17d78000>
1000006f8: 91101129    	add	x9, x9, #0x404
1000006fc: b9400128    	ldr	w8, [x9]
100000700: 11000508    	add	w8, w8, #0x1
100000704: b9000128    	str	w8, [x9]
100000708: 17ffffe4    	b	0x100000698 <_dm_sumarray0+0x48>
10000070c: 14000001    	b	0x100000710 <_dm_sumarray0+0xc0>
100000710: 900bec09    	adrp	x9, 0x117d80000 <_adata+0x17d78000>
100000714: 91100129    	add	x9, x9, #0x400
100000718: b9400128    	ldr	w8, [x9]
10000071c: 11000508    	add	w8, w8, #0x1
100000720: b9000128    	str	w8, [x9]
100000724: 17ffffd2    	b	0x10000066c <_dm_sumarray0+0x1c>
100000728: b9400be0    	ldr	w0, [sp, #0x8]
10000072c: 910043ff    	add	sp, sp, #0x10
100000730: d65f03c0    	ret

0000000100000734 <_dm_sumarray1>:
100000734: d10043ff    	sub	sp, sp, #0x10
100000738: b9000fe0    	str	w0, [sp, #0xc]
10000073c: b9000bff    	str	wzr, [sp, #0x8]
100000740: 900bec08    	adrp	x8, 0x117d80000 <_adata+0x17d78000>
100000744: 91100108    	add	x8, x8, #0x400
100000748: b900011f    	str	wzr, [x8]
10000074c: 14000001    	b	0x100000750 <_dm_sumarray1+0x1c>
100000750: 900bec08    	adrp	x8, 0x117d80000 <_adata+0x17d78000>
100000754: 91100108    	add	x8, x8, #0x400
100000758: b9400108    	ldr	w8, [x8]
10000075c: b9400fe9    	ldr	w9, [sp, #0xc]
100000760: 6b090108    	subs	w8, w8, w9
100000764: 54000540    	b.eq	0x10000080c <_dm_sumarray1+0xd8>
100000768: 14000001    	b	0x10000076c <_dm_sumarray1+0x38>
10000076c: 900bec08    	adrp	x8, 0x117d80000 <_adata+0x17d78000>
100000770: 91101108    	add	x8, x8, #0x404
100000774: b900011f    	str	wzr, [x8]
100000778: 14000001    	b	0x10000077c <_dm_sumarray1+0x48>
10000077c: 900bec08    	adrp	x8, 0x117d80000 <_adata+0x17d78000>
100000780: 91101108    	add	x8, x8, #0x404
100000784: b9400108    	ldr	w8, [x8]
100000788: b9400fe9    	ldr	w9, [sp, #0xc]
10000078c: 6b090108    	subs	w8, w8, w9
100000790: 54000300    	b.eq	0x1000007f0 <_dm_sumarray1+0xbc>
100000794: 14000001    	b	0x100000798 <_dm_sumarray1+0x64>
100000798: 900bec08    	adrp	x8, 0x117d80000 <_adata+0x17d78000>
10000079c: 91100108    	add	x8, x8, #0x400
1000007a0: b9400108    	ldr	w8, [x8]
1000007a4: 900bec09    	adrp	x9, 0x117d80000 <_adata+0x17d78000>
1000007a8: 91101129    	add	x9, x9, #0x404
1000007ac: b9400129    	ldr	w9, [x9]
1000007b0: b9400fea    	ldr	w10, [sp, #0xc]
1000007b4: 1b0a7d29    	mul	w9, w9, w10
1000007b8: 0b090109    	add	w9, w8, w9
1000007bc: 90000048    	adrp	x8, 0x100008000 <_adata>
1000007c0: 91000108    	add	x8, x8, #0x0
1000007c4: b869d909    	ldr	w9, [x8, w9, sxtw #2]
1000007c8: b9400be8    	ldr	w8, [sp, #0x8]
1000007cc: 0b090108    	add	w8, w8, w9
1000007d0: b9000be8    	str	w8, [sp, #0x8]
1000007d4: 14000001    	b	0x1000007d8 <_dm_sumarray1+0xa4>
1000007d8: 900bec09    	adrp	x9, 0x117d80000 <_adata+0x17d78000>
1000007dc: 91101129    	add	x9, x9, #0x404
1000007e0: b9400128    	ldr	w8, [x9]
1000007e4: 11000508    	add	w8, w8, #0x1
1000007e8: b9000128    	str	w8, [x9]
1000007ec: 17ffffe4    	b	0x10000077c <_dm_sumarray1+0x48>
1000007f0: 14000001    	b	0x1000007f4 <_dm_sumarray1+0xc0>
1000007f4: 900bec09    	adrp	x9, 0x117d80000 <_adata+0x17d78000>
1000007f8: 91100129    	add	x9, x9, #0x400
1000007fc: b9400128    	ldr	w8, [x9]
100000800: 11000508    	add	w8, w8, #0x1
100000804: b9000128    	str	w8, [x9]
100000808: 17ffffd2    	b	0x100000750 <_dm_sumarray1+0x1c>
10000080c: b9400be0    	ldr	w0, [sp, #0x8]
100000810: 910043ff    	add	sp, sp, #0x10
100000814: d65f03c0    	ret

0000000100000818 <_dm_sumarray2>:
100000818: d10043ff    	sub	sp, sp, #0x10
10000081c: b9000fe0    	str	w0, [sp, #0xc]
100000820: b9000bff    	str	wzr, [sp, #0x8]
100000824: 900bec08    	adrp	x8, 0x117d80000 <_adata+0x17d78000>
100000828: 91101108    	add	x8, x8, #0x404
10000082c: b900011f    	str	wzr, [x8]
100000830: 14000001    	b	0x100000834 <_dm_sumarray2+0x1c>
100000834: 900bec08    	adrp	x8, 0x117d80000 <_adata+0x17d78000>
100000838: 91101108    	add	x8, x8, #0x404
10000083c: b9400108    	ldr	w8, [x8]
100000840: b9400fe9    	ldr	w9, [sp, #0xc]
100000844: 6b090108    	subs	w8, w8, w9
100000848: 54000460    	b.eq	0x1000008d4 <_dm_sumarray2+0xbc>
10000084c: 14000001    	b	0x100000850 <_dm_sumarray2+0x38>
100000850: b90007ff    	str	wzr, [sp, #0x4]
100000854: 14000001    	b	0x100000858 <_dm_sumarray2+0x40>
100000858: b94007e8    	ldr	w8, [sp, #0x4]
10000085c: b9400fe9    	ldr	w9, [sp, #0xc]
100000860: 6b090108    	subs	w8, w8, w9
100000864: 540002a0    	b.eq	0x1000008b8 <_dm_sumarray2+0xa0>
100000868: 14000001    	b	0x10000086c <_dm_sumarray2+0x54>
10000086c: b94007e8    	ldr	w8, [sp, #0x4]
100000870: 900bec09    	adrp	x9, 0x117d80000 <_adata+0x17d78000>
100000874: 91101129    	add	x9, x9, #0x404
100000878: b9400129    	ldr	w9, [x9]
10000087c: b9400fea    	ldr	w10, [sp, #0xc]
100000880: 1b0a7d29    	mul	w9, w9, w10
100000884: 0b090109    	add	w9, w8, w9
100000888: 90000048    	adrp	x8, 0x100008000 <_adata>
10000088c: 91000108    	add	x8, x8, #0x0
100000890: b869d908    	ldr	w8, [x8, w9, sxtw #2]
100000894: b90003e8    	str	w8, [sp]
100000898: b94003e9    	ldr	w9, [sp]
10000089c: b9400be8    	ldr	w8, [sp, #0x8]
1000008a0: 0b090108    	add	w8, w8, w9
1000008a4: b9000be8    	str	w8, [sp, #0x8]
1000008a8: b94003e8    	ldr	w8, [sp]
1000008ac: 11000508    	add	w8, w8, #0x1
1000008b0: b90007e8    	str	w8, [sp, #0x4]
1000008b4: 17ffffe9    	b	0x100000858 <_dm_sumarray2+0x40>
1000008b8: 14000001    	b	0x1000008bc <_dm_sumarray2+0xa4>
1000008bc: 900bec09    	adrp	x9, 0x117d80000 <_adata+0x17d78000>
1000008c0: 91101129    	add	x9, x9, #0x404
1000008c4: b9400128    	ldr	w8, [x9]
1000008c8: 11000508    	add	w8, w8, #0x1
1000008cc: b9000128    	str	w8, [x9]
1000008d0: 17ffffd9    	b	0x100000834 <_dm_sumarray2+0x1c>
1000008d4: b9400be0    	ldr	w0, [sp, #0x8]
1000008d8: 910043ff    	add	sp, sp, #0x10
1000008dc: d65f03c0    	ret

00000001000008e0 <_main>:
1000008e0: d10243ff    	sub	sp, sp, #0x90
1000008e4: a9087bfd    	stp	x29, x30, [sp, #0x80]
1000008e8: 910203fd    	add	x29, sp, #0x80
1000008ec: 5283e808    	mov	w8, #0x1f40             ; =8000
1000008f0: b81fc3a8    	stur	w8, [x29, #-0x4]
1000008f4: 52807d08    	mov	w8, #0x3e8              ; =1000
1000008f8: b81f83a8    	stur	w8, [x29, #-0x8]
1000008fc: b85fc3a0    	ldur	w0, [x29, #-0x4]
100000900: 97fffefe    	bl	0x1000004f8 <_initialise>
100000904: 97ffff33    	bl	0x1000005d0 <_cacheload>
100000908: b81f43a0    	stur	w0, [x29, #-0xc]
10000090c: 9400002e    	bl	0x1000009c4 <_printf+0x1000009c4>
100000910: f81e83a0    	stur	x0, [x29, #-0x18]
100000914: b85fc3a0    	ldur	w0, [x29, #-0x4]
100000918: 97ffff4e    	bl	0x100000650 <_dm_sumarray0>
10000091c: b81e43a0    	stur	w0, [x29, #-0x1c]
100000920: 94000029    	bl	0x1000009c4 <_printf+0x1000009c4>
100000924: f81d83a0    	stur	x0, [x29, #-0x28]
100000928: b85fc3a0    	ldur	w0, [x29, #-0x4]
10000092c: 97ffffbb    	bl	0x100000818 <_dm_sumarray2>
100000930: b81d43a0    	stur	w0, [x29, #-0x2c]
100000934: 94000024    	bl	0x1000009c4 <_printf+0x1000009c4>
100000938: f81c83a0    	stur	x0, [x29, #-0x38]
10000093c: b85fc3a0    	ldur	w0, [x29, #-0x4]
100000940: 97ffff7d    	bl	0x100000734 <_dm_sumarray1>
100000944: b81c43a0    	stur	w0, [x29, #-0x3c]
100000948: 9400001f    	bl	0x1000009c4 <_printf+0x1000009c4>
10000094c: f9001fe0    	str	x0, [sp, #0x38]
100000950: f85d83a8    	ldur	x8, [x29, #-0x28]
100000954: f85e83a9    	ldur	x9, [x29, #-0x18]
100000958: eb090108    	subs	x8, x8, x9
10000095c: 9e630100    	ucvtf	d0, x8
100000960: fd001be0    	str	d0, [sp, #0x30]
100000964: f85c83a8    	ldur	x8, [x29, #-0x38]
100000968: f85d83a9    	ldur	x9, [x29, #-0x28]
10000096c: eb090108    	subs	x8, x8, x9
100000970: 9e630100    	ucvtf	d0, x8
100000974: fd0017e0    	str	d0, [sp, #0x28]
100000978: f9401fe8    	ldr	x8, [sp, #0x38]
10000097c: f85c83a9    	ldur	x9, [x29, #-0x38]
100000980: eb090108    	subs	x8, x8, x9
100000984: 9e630100    	ucvtf	d0, x8
100000988: fd0013e0    	str	d0, [sp, #0x20]
10000098c: fd401be2    	ldr	d2, [sp, #0x30]
100000990: fd4017e1    	ldr	d1, [sp, #0x28]
100000994: fd4013e0    	ldr	d0, [sp, #0x20]
100000998: 910003e8    	mov	x8, sp
10000099c: fd000102    	str	d2, [x8]
1000009a0: fd000501    	str	d1, [x8, #0x8]
1000009a4: fd000900    	str	d0, [x8, #0x10]
1000009a8: 90000000    	adrp	x0, 0x100000000 <_printf+0x100000000>
1000009ac: 91277000    	add	x0, x0, #0x9dc
1000009b0: 94000008    	bl	0x1000009d0 <_printf+0x1000009d0>
1000009b4: 52800000    	mov	w0, #0x0                ; =0
1000009b8: a9487bfd    	ldp	x29, x30, [sp, #0x80]
1000009bc: 910243ff    	add	sp, sp, #0x90
1000009c0: d65f03c0    	ret

Disassembly of section __TEXT,__stubs:

00000001000009c4 <__stubs>:
1000009c4: 90000030    	adrp	x16, 0x100004000 <_printf+0x100004000>
1000009c8: f9400210    	ldr	x16, [x16]
1000009cc: d61f0200    	br	x16
1000009d0: 90000030    	adrp	x16, 0x100004000 <_printf+0x100004000>
1000009d4: f9400610    	ldr	x16, [x16, #0x8]
1000009d8: d61f0200    	br	x16
